; Function Attrs: mustprogress uwtable
define void @_ZNK6casadi15KinsolInterface8set_workEPvRPPKdRPPdRPxRS6_(ptr noundef nonnull align 8 dereferenceable(1696) %0, ptr noundef %1, ptr noundef nonnull align 8 dereferenceable(8) %2, ptr noundef nonnull align 8 dereferenceable(8) %3, ptr noundef nonnull align 8 dereferenceable(8) %4, ptr noundef nonnull align 8 dereferenceable(8) %5) unnamed_addr #3 align 2 {
  tail call void @_ZNK6casadi10Rootfinder8set_workEPvRPPKdRPPdRPxRS6_(ptr noundef nonnull align 8 dereferenceable(1592) %0, ptr noundef %1, ptr noundef nonnull align 8 dereferenceable(8) %2, ptr noundef nonnull align 8 dereferenceable(8) %3, ptr noundef nonnull align 8 dereferenceable(8) %4, ptr noundef nonnull align 8 dereferenceable(8) %5)
  %7 = load ptr, ptr %5, align 8
  %8 = getelementptr inbounds i8, ptr %1, i64 160
  store ptr %7, ptr %8, align 8
  %9 = getelementptr inbounds i8, ptr %0, i64 1544
  %10 = tail call noundef i64 @_ZNK6casadi8Sparsity3nnzEv(ptr noundef nonnull align 8 dereferenceable(8) %9)
  %11 = load ptr, ptr %5, align 8
  %12 = getelementptr inbounds double, ptr %11, i64 %10
  store ptr %12, ptr %5, align 8
  ret void
}